target datalayout = "e-m:e-p270:32:32-p271:32:32-p272:64:64-i64:64-i128:128-f80:128-n8:16:32:64-S128"
target triple = "x86_64-pc-linux-gnu"

%class.RegisterMap = type <{ [609 x ptr], [10 x i64], i8, [7 x i8], ptr, %class.stackChunkHandle, i32, i8, i8, i8, i8 }>
%class.stackChunkHandle = type { %class.Handle }
%class.Handle = type { ptr }
%class.frame = type { %union.anon.4, ptr, ptr, ptr, i32, i8, %union.anon.5, %union.anon.6 }
%union.anon.4 = type { ptr }
%union.anon.5 = type { ptr }
%union.anon.6 = type { ptr }
%class.vframeStreamCommon = type { %class.frame, ptr, %class.RegisterMap, i32, i32, i32, i32, ptr, i32, ptr, i8, %class.Handle }
%class.CompiledICLocker = type { ptr, ptr, i8, %class.NoSafepointVerifier }
%class.NoSafepointVerifier = type { ptr }

; Function Attrs: mustprogress nounwind uwtable
define linkonce_odr hidden noundef ptr @_ZNK5frame2cbEv(ptr noundef nonnull align 8 dereferenceable(56) %0) #1 comdat align 2 {
  %2 = alloca ptr, align 8
  store ptr %0, ptr %2, align 8
  %3 = load ptr, ptr %2, align 8
  %4 = getelementptr inbounds %class.frame, ptr %3, i32 0, i32 2
  %5 = load ptr, ptr %4, align 8
  ret ptr %5
}

; Function Attrs: mustprogress nounwind uwtable
define linkonce_odr hidden noundef ptr @_ZNK5frame2pcEv(ptr noundef nonnull align 8 dereferenceable(56) %0) #1 comdat align 2 {
  %2 = alloca ptr, align 8
  store ptr %0, ptr %2, align 8
  %3 = load ptr, ptr %2, align 8
  %4 = getelementptr inbounds %class.frame, ptr %3, i32 0, i32 1
  %5 = load ptr, ptr %4, align 8
  ret ptr %5
}

; Function Attrs: mustprogress nounwind uwtable
define linkonce_odr hidden noundef ptr @_ZN8CodeBlob10as_nmethodEv(ptr noundef nonnull align 8 dereferenceable(54) %0) #1 comdat align 2 {
  %2 = alloca ptr, align 8
  store ptr %0, ptr %2, align 8
  %3 = load ptr, ptr %2, align 8
  ret ptr %3
}

; Function Attrs: mustprogress nounwind uwtable
define linkonce_odr hidden noundef ptr @_ZNK18vframeStreamCommon2cbEv(ptr noundef nonnull align 8 dereferenceable(5104) %0) #1 comdat align 2 {
  %2 = alloca ptr, align 8
  store ptr %0, ptr %2, align 8
  %3 = load ptr, ptr %2, align 8
  %4 = getelementptr inbounds %class.vframeStreamCommon, ptr %3, i32 0, i32 0
  %5 = call noundef ptr @_ZNK5frame2cbEv(ptr noundef nonnull align 8 dereferenceable(56) %4)
  ret ptr %5
}

; Function Attrs: mustprogress nounwind uwtable
define linkonce_odr hidden noundef ptr @_ZNK18vframeStreamCommon8frame_pcEv(ptr noundef nonnull align 8 dereferenceable(5104) %0) #1 comdat align 2 {
  %2 = alloca ptr, align 8
  store ptr %0, ptr %2, align 8
  %3 = load ptr, ptr %2, align 8
  %4 = getelementptr inbounds %class.vframeStreamCommon, ptr %3, i32 0, i32 0
  %5 = call noundef ptr @_ZNK5frame2pcEv(ptr noundef nonnull align 8 dereferenceable(56) %4)
  ret ptr %5
}

; Function Attrs: mustprogress nounwind uwtable
define linkonce_odr hidden noundef ptr @_ZNK18vframeStreamCommon2nmEv(ptr noundef nonnull align 8 dereferenceable(5104) %0) #1 comdat align 2 {
  %2 = alloca ptr, align 8
  store ptr %0, ptr %2, align 8
  %3 = load ptr, ptr %2, align 8
  %4 = call noundef ptr @_ZNK18vframeStreamCommon2cbEv(ptr noundef nonnull align 8 dereferenceable(5104) %3)
  %5 = call noundef ptr @_ZN8CodeBlob10as_nmethodEv(ptr noundef nonnull align 8 dereferenceable(54) %4)
  ret ptr %5
}

; Function Attrs: mustprogress nounwind uwtable
define hidden noundef ptr @_ZN13SharedRuntime23extract_attached_methodER12vframeStream(ptr noundef nonnull align 8 dereferenceable(5104) %0) #1 align 2 {
  %2 = alloca ptr, align 8
  %3 = alloca ptr, align 8
  %4 = alloca ptr, align 8
  %5 = alloca %class.CompiledICLocker, align 8
  store ptr %0, ptr %2, align 8
  %6 = load ptr, ptr %2, align 8
  %7 = call noundef ptr @_ZNK18vframeStreamCommon2nmEv(ptr noundef nonnull align 8 dereferenceable(5104) %6)
  store ptr %7, ptr %3, align 8
  %8 = load ptr, ptr %2, align 8
  %9 = call noundef ptr @_ZNK18vframeStreamCommon8frame_pcEv(ptr noundef nonnull align 8 dereferenceable(5104) %8)
  store ptr %9, ptr %4, align 8
  %10 = load ptr, ptr %3, align 8
  call void @_ZN16CompiledICLockerC1EP7nmethod(ptr noundef nonnull align 8 dereferenceable(32) %5, ptr noundef %10)
  %11 = load ptr, ptr %3, align 8
  %12 = load ptr, ptr %4, align 8
  %13 = call noundef ptr @_ZN7nmethod25attached_method_before_pcEPh(ptr noundef nonnull align 8 dereferenceable(214) %11, ptr noundef %12)
  call void @_ZN16CompiledICLockerD1Ev(ptr noundef nonnull align 8 dereferenceable(32) %5) #10
  ret ptr %13
}