; Function Attrs: mustprogress nounwind uwtable
define hidden noundef ptr @_ZN13SharedRuntime23extract_attached_methodER12vframeStream(ptr nocapture noundef nonnull readonly align 8 dereferenceable(5104) %0) local_unnamed_addr #0 align 2 {
  %2 = alloca %class.CompiledICLocker, align 8
  %3 = getelementptr inbounds i8, ptr %0, i64 16
  %4 = load ptr, ptr %3, align 8
  %5 = getelementptr inbounds i8, ptr %0, i64 8
  %6 = load ptr, ptr %5, align 8
  call void @_ZN16CompiledICLockerC1EP7nmethod(ptr noundef nonnull align 8 dereferenceable(32) %2, ptr noundef %4) #18
  %7 = call noundef ptr @_ZN7nmethod25attached_method_before_pcEPh(ptr noundef nonnull align 8 dereferenceable(214) %4, ptr noundef %6) #18
  call void @_ZN16CompiledICLockerD1Ev(ptr noundef nonnull align 8 dereferenceable(32) %2) #18
  ret ptr %7
}